target datalayout = "e-m:e-p270:32:32-p271:32:32-p272:64:64-i64:64-i128:128-f80:128-n8:16:32:64-S128"
target triple = "x86_64-pc-linux-gnu"

%"class.llvm::SMLoc" = type { ptr }
%"class.llvm::SMRange" = type { %"class.llvm::SMLoc", %"class.llvm::SMLoc" }

; Function Attrs: mustprogress nounwind uwtable
define linkonce_odr hidden void @_ZN4llvm5SMLocC2Ev(ptr noundef nonnull align 8 dereferenceable(8) %0) unnamed_addr #1 comdat align 2 {
  %2 = alloca ptr, align 8
  store ptr %0, ptr %2, align 8
  %3 = load ptr, ptr %2, align 8
  %4 = getelementptr inbounds nuw %"class.llvm::SMLoc", ptr %3, i32 0, i32 0
  store ptr null, ptr %4, align 8
  ret void
}

; Function Attrs: mustprogress nounwind uwtable
define linkonce_odr hidden void @_ZN4llvm7SMRangeC2ESt9nullopt_t(ptr noundef nonnull align 8 dereferenceable(16) %0) unnamed_addr #1 comdat align 2 {
  %2 = alloca ptr, align 8
  store ptr %0, ptr %2, align 8
  %3 = load ptr, ptr %2, align 8
  %4 = getelementptr inbounds nuw %"class.llvm::SMRange", ptr %3, i32 0, i32 0
  call void @_ZN4llvm5SMLocC2Ev(ptr noundef nonnull align 8 dereferenceable(8) %4) #2
  %5 = getelementptr inbounds nuw %"class.llvm::SMRange", ptr %3, i32 0, i32 1
  call void @_ZN4llvm5SMLocC2Ev(ptr noundef nonnull align 8 dereferenceable(8) %5) #2
  ret void
}

; Function Attrs: mustprogress nounwind uwtable
define dso_local noundef zeroext i1 @_ZN4llvm11MCAsmParser5checkEbNS_5SMLocERKNS_5TwineE(ptr noundef nonnull align 8 dereferenceable(34) %0, i1 noundef zeroext %1, ptr %2, ptr noundef nonnull align 8 dereferenceable(34) %3) #1 align 2 {
  %5 = alloca i1, align 1
  %6 = alloca %"class.llvm::SMLoc", align 8
  %7 = alloca ptr, align 8
  %8 = alloca i8, align 1
  %9 = alloca ptr, align 8
  %10 = alloca %"class.llvm::SMLoc", align 8
  %11 = alloca %"class.llvm::SMRange", align 8
  %12 = getelementptr inbounds nuw %"class.llvm::SMLoc", ptr %6, i32 0, i32 0
  store ptr %2, ptr %12, align 8
  store ptr %0, ptr %7, align 8
  %13 = zext i1 %1 to i8
  store i8 %13, ptr %8, align 1
  store ptr %3, ptr %9, align 8
  %14 = load ptr, ptr %7, align 8
  %15 = load i8, ptr %8, align 1
  %16 = trunc i8 %15 to i1
  br i1 %16, label %17, label %26

17:                                               ; preds = %4
  call void @llvm.memcpy.p0.p0.i64(ptr align 8 %10, ptr align 8 %6, i64 8, i1 false)
  %18 = load ptr, ptr %9, align 8
  call void @_ZN4llvm7SMRangeC2ESt9nullopt_t(ptr noundef nonnull align 8 dereferenceable(16) %11)
  %19 = getelementptr inbounds nuw %"class.llvm::SMLoc", ptr %10, i32 0, i32 0
  %20 = load ptr, ptr %19, align 8
  %21 = getelementptr inbounds nuw { ptr, ptr }, ptr %11, i32 0, i32 0
  %22 = load ptr, ptr %21, align 8
  %23 = getelementptr inbounds nuw { ptr, ptr }, ptr %11, i32 0, i32 1
  %24 = load ptr, ptr %23, align 8
  %25 = call noundef zeroext i1 @_ZN4llvm11MCAsmParser5ErrorENS_5SMLocERKNS_5TwineENS_7SMRangeE(ptr noundef nonnull align 8 dereferenceable(34) %14, ptr %20, ptr noundef nonnull align 8 dereferenceable(34) %18, ptr %22, ptr %24)
  store i1 %25, ptr %5, align 1
  br label %27

26:                                               ; preds = %4
  store i1 false, ptr %5, align 1
  br label %27

27:                                               ; preds = %26, %17
  %28 = load i1, ptr %5, align 1
  ret i1 %28
}