; Function Attrs: mustprogress nounwind uwtable
define dso_local noundef zeroext i1 @_ZN4llvm11MCAsmParser5checkEbNS_5SMLocERKNS_5TwineE(ptr noundef nonnull align 8 dereferenceable(34) %0, i1 noundef returned zeroext %1, ptr %2, ptr noundef nonnull align 8 dereferenceable(34) %3) local_unnamed_addr #0 align 2 {
  br i1 %1, label %5, label %7

5:                                                ; preds = %4
  %6 = tail call noundef zeroext i1 @_ZN4llvm11MCAsmParser5ErrorENS_5SMLocERKNS_5TwineENS_7SMRangeE(ptr noundef nonnull align 8 dereferenceable(34) %0, ptr %2, ptr noundef nonnull align 8 dereferenceable(34) %3, ptr null, ptr null)
  br label %7

7:                                                ; preds = %4, %5
  ret i1 %1
}